; Function Attrs: mustprogress uwtable
define void @_ZN5boost9container3pmr26synchronized_pool_resource7releaseEv(ptr noundef nonnull align 8 dereferenceable(104) %0) local_unnamed_addr #3 align 2 personality ptr @__gxx_personality_v0 {
  %2 = getelementptr inbounds nuw i8, ptr %0, i64 8
  %3 = tail call i32 @pthread_mutex_lock(ptr noundef nonnull align 8 dereferenceable(40) %2) #6
  %4 = getelementptr inbounds nuw i8, ptr %0, i64 48
  invoke void @_ZN5boost9container3pmr13pool_resource7releaseEv(ptr noundef nonnull align 8 dereferenceable(56) %4)
          to label %5 unwind label %7

5:                                                ; preds = %1
  %6 = tail call i32 @pthread_mutex_unlock(ptr noundef nonnull align 8 dereferenceable(40) %2) #6
  ret void

7:                                                ; preds = %1
  %8 = landingpad { ptr, i32 }
          cleanup
  %9 = tail call i32 @pthread_mutex_unlock(ptr noundef nonnull align 8 dereferenceable(40) %2) #6
  resume { ptr, i32 } %8
}